target datalayout = "e-m:e-p270:32:32-p271:32:32-p272:64:64-i64:64-i128:128-f80:128-n8:16:32:64-S128"
target triple = "x86_64-pc-linux-gnu"

%"class.sls::bv_plugin" = type <{ %"class.sls::plugin.base", [4 x i8], %class.bv_util, %"class.sls::bv_terms", %"class.sls::bv_eval", %"class.bv::sls_stats", i8, [7 x i8] }>
%"class.sls::plugin.base" = type <{ ptr, ptr, ptr, i32 }>
%class.bv_util = type { %class.bv_recognizers, ptr, ptr }
%class.bv_recognizers = type { i32 }
%"class.sls::bv_terms" = type { ptr, ptr, %class.bv_util, %class.ref_vector, %class.vector.0 }
%class.ref_vector = type { %class.ref_vector_core }
%class.ref_vector_core = type { %class.ref_manager_wrapper, %class.ptr_vector }
%class.ref_manager_wrapper = type { ptr }
%class.ptr_vector = type { %class.vector }
%class.vector = type { ptr }
%class.vector.0 = type { ptr }
%"class.sls::bv_eval" = type <{ ptr, ptr, ptr, %"class.sls::bv_lookahead", %class.bv_util, %"class.sls::bv_fixed", [8 x i8], %class.ptr_vector, %class.random_gen, %"struct.sls::bv_eval::config", %class.svector.8, i32, i32, %class.svector.10, %class.svector.12, %class.scoped_ptr_vector, %"class.sls::bvect", %"class.sls::bvect", %"class.sls::bvect", %"class.sls::bvect", %"class.sls::bvect", %"class.sls::bvect", %"class.sls::bvect", %"class.sls::bvect", %"class.sls::bvect", %"class.sls::bvect", %"class.sls::bvect", %"class.sls::bvect", %"class.sls::bvect", i8, [7 x i8] }>
%"class.sls::bv_lookahead" = type { %class.bv_util, ptr, ptr, ptr, %"struct.sls::bv_lookahead::config", %"struct.sls::bv_lookahead::stats", %"class.sls::bvect", %"class.sls::bvect", %class.ptr_vector, %class.svector.2, %class.vector.4, %class.obj_mark, double, double, %"class.sls::bvect", ptr, ptr, %class.ptr_vector, %class.vector.5, %class.obj_mark, i32, %class.tracked_uint_set, i32, i32 }
%"struct.sls::bv_lookahead::config" = type <{ i8, [7 x i8], double, i32, i32, i8, i8, i8, i8, i32, i32, i32, i32, i8, [3 x i8], i32, i32, i32, i8, [3 x i8], double, double, i8, [7 x i8], double, i8, i8, i8, [5 x i8] }>
%"struct.sls::bv_lookahead::stats" = type { i32, i32, i32, i32, i32, i32 }
%class.svector.2 = type { %class.vector.3 }
%class.vector.3 = type { ptr }
%class.vector.4 = type { ptr }
%class.vector.5 = type { ptr }
%class.obj_mark = type { [8 x i8], %class.bit_vector }
%class.bit_vector = type { i32, i32, ptr }
%class.tracked_uint_set = type { %class.svector.6, %class.svector }
%class.svector.6 = type { %class.vector.7 }
%class.vector.7 = type { ptr }
%class.svector = type { %class.vector.1 }
%class.vector.1 = type { ptr }
%"class.sls::bv_fixed" = type { ptr, ptr, ptr, ptr, ptr }
%class.random_gen = type { i32 }
%"struct.sls::bv_eval::config" = type { i32 }
%class.svector.8 = type { %class.vector.9 }
%class.vector.9 = type { ptr }
%class.svector.10 = type { %class.vector.11 }
%class.vector.11 = type { ptr }
%class.svector.12 = type { %class.vector.13 }
%class.vector.13 = type { ptr }
%class.scoped_ptr_vector = type { %class.ptr_vector.14 }
%class.ptr_vector.14 = type { %class.vector.15 }
%class.vector.15 = type { ptr }
%"class.sls::bvect" = type <{ %class.svector, i32, i32, i32, [4 x i8] }>
%"class.bv::sls_stats" = type { i32, i32, i32, i32, i32, i32, i32, i32, %class.stopwatch }
%class.stopwatch = type <{ %"class.std::chrono::time_point", %"class.std::chrono::duration", i8, [7 x i8] }>
%"class.std::chrono::time_point" = type { %"class.std::chrono::duration" }
%"class.std::chrono::duration" = type { i64 }
%"class.sls::plugin" = type <{ ptr, ptr, ptr, i32, [4 x i8] }>
%"class.sls::context" = type <{ ptr, ptr, %class.scoped_ptr_vector.16, %class.indexed_uint_set, %class.indexed_uint_set, %class.ref_vector, %class.svector, %class.params_ref, %class.vector.0, %class.svector.19, %class.svector.19, %class.indexed_uint_set, %class.random_gen, i8, i8, i8, i8, %class.ref_vector, %class.ref_vector, %class.ptr_vector, %"struct.sls::context::greater_depth", %"struct.sls::context::less_depth", %class.heap, %class.heap.23, %class.uint_set, %class.ref_vector, %"struct.sls::context::stats", [4 x i8], %class.ref_vector, i8, [7 x i8] }>
%class.scoped_ptr_vector.16 = type { %class.ptr_vector.17 }
%class.ptr_vector.17 = type { %class.vector.18 }
%class.vector.18 = type { ptr }
%class.params_ref = type { ptr }
%class.svector.19 = type { %class.vector.20 }
%class.vector.20 = type { ptr }
%class.indexed_uint_set = type { i32, %class.svector, %class.svector }
%"struct.sls::context::greater_depth" = type { ptr }
%"struct.sls::context::less_depth" = type { ptr }
%class.heap = type { %"struct.sls::context::greater_depth", %class.svector.21, %class.svector.21 }
%class.svector.21 = type { %class.vector.22 }
%class.vector.22 = type { ptr }
%class.heap.23 = type { %"struct.sls::context::less_depth", %class.svector.21, %class.svector.21 }
%class.uint_set = type { %class.svector }
%"struct.sls::context::stats" = type { i32, i32, i32 }
%class.app = type { %class.expr, ptr, i32, %struct.app_flags, [0 x ptr] }
%class.expr = type { %class.ast }
%class.ast = type { i32, i32, i32, i32 }
%struct.app_flags = type <{ i16, i8, i8 }>
%class.symbol = type { ptr }
%class.quantifier = type { %class.expr, i32, i32, ptr, ptr, i32, i32, i8, i8, %class.symbol, %class.symbol, i32, i32, [0 x i8] }

; Function Attrs: mustprogress nounwind uwtable
define linkonce_odr hidden noundef i32 @_ZN10random_genclEv(ptr noundef nonnull align 4 dereferenceable(4) %0) #6 comdat align 2 {
  %2 = alloca ptr, align 8
  store ptr %0, ptr %2, align 8, !tbaa !278
  %3 = load ptr, ptr %2, align 8
  %4 = getelementptr inbounds nuw %class.random_gen, ptr %3, i32 0, i32 0
  %5 = load i32, ptr %4, align 4, !tbaa !280
  %6 = zext i32 %5 to i64
  %7 = mul nsw i64 %6, 214013
  %8 = add nsw i64 %7, 2531011
  %9 = trunc i64 %8 to i32
  %10 = getelementptr inbounds nuw %class.random_gen, ptr %3, i32 0, i32 0
  store i32 %9, ptr %10, align 4, !tbaa !280
  %11 = lshr i32 %9, 16
  %12 = and i32 %11, 32767
  ret i32 %12
}

; Function Attrs: mustprogress nounwind uwtable
define linkonce_odr hidden noundef i32 @_ZNK3ast8get_kindEv(ptr noundef nonnull align 4 dereferenceable(16) %0) #6 comdat align 2 {
  %2 = alloca ptr, align 8
  store ptr %0, ptr %2, align 8, !tbaa !140
  %3 = load ptr, ptr %2, align 8
  %4 = getelementptr inbounds nuw %class.ast, ptr %3, i32 0, i32 1
  %5 = load i32, ptr %4, align 4
  %6 = and i32 %5, 65535
  ret i32 %6
}

; Function Attrs: mustprogress uwtable
define linkonce_odr hidden noundef i32 @_ZN10random_genclEj(ptr noundef nonnull align 4 dereferenceable(4) %0, i32 noundef %1) #4 comdat align 2 {
  %3 = alloca ptr, align 8
  %4 = alloca i32, align 4
  %5 = alloca i32, align 4
  store ptr %0, ptr %3, align 8, !tbaa !278
  store i32 %1, ptr %4, align 4, !tbaa !113
  %6 = load ptr, ptr %3, align 8
  call void @llvm.lifetime.start.p0(i64 4, ptr %5) #3
  %7 = call noundef i32 @_ZN10random_genclEv(ptr noundef nonnull align 4 dereferenceable(4) %6)
  store i32 %7, ptr %5, align 4, !tbaa !113
  %8 = load i32, ptr %5, align 4, !tbaa !113
  %9 = load i32, ptr %4, align 4, !tbaa !113
  %10 = urem i32 %8, %9
  call void @llvm.lifetime.end.p0(i64 4, ptr %5) #3
  ret i32 %10
}

; Function Attrs: mustprogress nounwind uwtable
define linkonce_odr hidden noundef i32 @_ZNK10quantifier9get_depthEv(ptr noundef nonnull align 8 dereferenceable(80) %0) #6 comdat align 2 {
  %2 = alloca ptr, align 8
  store ptr %0, ptr %2, align 8, !tbaa !272
  %3 = load ptr, ptr %2, align 8
  %4 = getelementptr inbounds nuw %class.quantifier, ptr %3, i32 0, i32 5
  %5 = load i32, ptr %4, align 8, !tbaa !274
  ret i32 %5
}

; Function Attrs: inlinehint mustprogress nounwind uwtable
define linkonce_odr hidden noundef ptr @_Z13to_quantifierPK3ast(ptr noundef %0) #5 comdat {
  %2 = alloca ptr, align 8
  store ptr %0, ptr %2, align 8, !tbaa !140
  %3 = load ptr, ptr %2, align 8, !tbaa !140
  ret ptr %3
}

; Function Attrs: inlinehint mustprogress nounwind uwtable
define linkonce_odr hidden noundef zeroext i1 @_Z13is_quantifierPK3ast(ptr noundef %0) #5 comdat {
  %2 = alloca ptr, align 8
  store ptr %0, ptr %2, align 8, !tbaa !140
  %3 = load ptr, ptr %2, align 8, !tbaa !140
  %4 = call noundef i32 @_ZNK3ast8get_kindEv(ptr noundef nonnull align 4 dereferenceable(16) %3)
  %5 = icmp eq i32 %4, 2
  ret i1 %5
}

; Function Attrs: mustprogress nounwind uwtable
define linkonce_odr hidden noundef i32 @_ZNK3app9get_depthEv(ptr noundef nonnull align 8 dereferenceable(32) %0) #6 comdat align 2 {
  %2 = alloca ptr, align 8
  store ptr %0, ptr %2, align 8, !tbaa !114
  %3 = load ptr, ptr %2, align 8
  %4 = getelementptr inbounds nuw %class.app, ptr %3, i32 0, i32 3
  %5 = load i16, ptr %4, align 4
  %6 = zext i16 %5 to i32
  ret i32 %6
}

; Function Attrs: inlinehint mustprogress nounwind uwtable
define linkonce_odr hidden noundef ptr @_Z6to_appPK3ast(ptr noundef %0) #5 comdat {
  %2 = alloca ptr, align 8
  store ptr %0, ptr %2, align 8, !tbaa !140
  %3 = load ptr, ptr %2, align 8, !tbaa !140
  ret ptr %3
}

; Function Attrs: inlinehint mustprogress uwtable
define linkonce_odr hidden noundef zeroext i1 @_Z6is_appPK3ast(ptr noundef %0) #9 comdat {
  %2 = alloca ptr, align 8
  store ptr %0, ptr %2, align 8, !tbaa !140
  %3 = load ptr, ptr %2, align 8, !tbaa !140
  %4 = call noundef i32 @_ZNK3ast8get_kindEv(ptr noundef nonnull align 4 dereferenceable(16) %3)
  %5 = icmp eq i32 %4, 0
  ret i1 %5
}

; Function Attrs: mustprogress uwtable
define linkonce_odr hidden noundef i32 @_ZN3sls7context4randEj(ptr noundef nonnull align 8 dereferenceable(321) %0, i32 noundef %1) #4 comdat align 2 {
  %3 = alloca ptr, align 8
  %4 = alloca i32, align 4
  store ptr %0, ptr %3, align 8, !tbaa !8
  store i32 %1, ptr %4, align 4, !tbaa !113
  %5 = load ptr, ptr %3, align 8
  %6 = getelementptr inbounds nuw %"class.sls::context", ptr %5, i32 0, i32 12
  %7 = load i32, ptr %4, align 4, !tbaa !113
  %8 = call noundef i32 @_ZN10random_genclEj(ptr noundef nonnull align 4 dereferenceable(4) %6, i32 noundef %7)
  ret i32 %8
}

; Function Attrs: inlinehint mustprogress uwtable
define linkonce_odr hidden noundef i32 @_Z9get_depthPK4expr(ptr noundef %0) #9 comdat {
  %2 = alloca i32, align 4
  %3 = alloca ptr, align 8
  store ptr %0, ptr %3, align 8, !tbaa !97
  %4 = load ptr, ptr %3, align 8, !tbaa !97
  %5 = call noundef zeroext i1 @_Z6is_appPK3ast(ptr noundef %4)
  br i1 %5, label %6, label %10

6:                                                ; preds = %1
  %7 = load ptr, ptr %3, align 8, !tbaa !97
  %8 = call noundef ptr @_Z6to_appPK3ast(ptr noundef %7)
  %9 = call noundef i32 @_ZNK3app9get_depthEv(ptr noundef nonnull align 8 dereferenceable(32) %8)
  store i32 %9, ptr %2, align 4
  br label %18

10:                                               ; preds = %1
  %11 = load ptr, ptr %3, align 8, !tbaa !97
  %12 = call noundef zeroext i1 @_Z13is_quantifierPK3ast(ptr noundef %11)
  br i1 %12, label %13, label %17

13:                                               ; preds = %10
  %14 = load ptr, ptr %3, align 8, !tbaa !97
  %15 = call noundef ptr @_Z13to_quantifierPK3ast(ptr noundef %14)
  %16 = call noundef i32 @_ZNK10quantifier9get_depthEv(ptr noundef nonnull align 8 dereferenceable(80) %15)
  store i32 %16, ptr %2, align 4
  br label %18

17:                                               ; preds = %10
  store i32 1, ptr %2, align 4
  br label %18

18:                                               ; preds = %17, %13, %6
  %19 = load i32, ptr %2, align 4
  ret i32 %19
}

; Function Attrs: mustprogress nounwind uwtable
define linkonce_odr hidden noundef ptr @_ZNK3app7get_argEj(ptr noundef nonnull align 8 dereferenceable(32) %0, i32 noundef %1) #6 comdat align 2 {
  %3 = alloca ptr, align 8
  %4 = alloca i32, align 4
  store ptr %0, ptr %3, align 8, !tbaa !114
  store i32 %1, ptr %4, align 4, !tbaa !113
  %5 = load ptr, ptr %3, align 8
  %6 = getelementptr inbounds nuw %class.app, ptr %5, i32 0, i32 4
  %7 = load i32, ptr %4, align 4, !tbaa !113
  %8 = zext i32 %7 to i64
  %9 = getelementptr inbounds nuw [0 x ptr], ptr %6, i64 0, i64 %8
  %10 = load ptr, ptr %9, align 8, !tbaa !97
  ret ptr %10
}

; Function Attrs: mustprogress nounwind uwtable
define linkonce_odr hidden noundef i32 @_ZNK3app12get_num_argsEv(ptr noundef nonnull align 8 dereferenceable(32) %0) #6 comdat align 2 {
  %2 = alloca ptr, align 8
  store ptr %0, ptr %2, align 8, !tbaa !114
  %3 = load ptr, ptr %2, align 8
  %4 = getelementptr inbounds nuw %class.app, ptr %3, i32 0, i32 2
  %5 = load i32, ptr %4, align 8, !tbaa !166
  ret i32 %5
}

; Function Attrs: mustprogress uwtable
define hidden noundef zeroext i1 @_ZN3sls9bv_plugin11repair_downEP3app(ptr noundef nonnull align 8 dereferenceable(1049) %0, ptr noundef %1) unnamed_addr #4 align 2 {
  %3 = alloca i1, align 1
  %4 = alloca ptr, align 8
  %5 = alloca ptr, align 8
  %6 = alloca i32, align 4
  %7 = alloca i8, align 1
  %8 = alloca i32, align 4
  %9 = alloca i32, align 4
  %10 = alloca i32, align 4
  %11 = alloca i32, align 4
  %12 = alloca i32, align 4
  %13 = alloca i32, align 4
  %14 = alloca i32, align 4
  store ptr %0, ptr %4, align 8, !tbaa !3
  store ptr %1, ptr %5, align 8, !tbaa !114
  %15 = load ptr, ptr %4, align 8
  call void @llvm.lifetime.start.p0(i64 4, ptr %6) #3
  %16 = load ptr, ptr %5, align 8, !tbaa !114
  %17 = call noundef i32 @_ZNK3app12get_num_argsEv(ptr noundef nonnull align 8 dereferenceable(32) %16)
  store i32 %17, ptr %6, align 4, !tbaa !113
  call void @llvm.lifetime.start.p0(i64 1, ptr %7) #3
  store i8 1, ptr %7, align 1, !tbaa !158
  %18 = load i32, ptr %6, align 4, !tbaa !113
  %19 = icmp eq i32 %18, 0
  br i1 %19, label %28, label %20

20:                                               ; preds = %2
  %21 = getelementptr inbounds nuw %"class.sls::bv_plugin", ptr %15, i32 0, i32 4
  %22 = load ptr, ptr %5, align 8, !tbaa !114
  %23 = call noundef zeroext i1 @_ZNK3sls7bv_eval16is_uninterpretedEP3app(ptr noundef nonnull align 8 dereferenceable(865) %21, ptr noundef %22)
  br i1 %23, label %28, label %24

24:                                               ; preds = %20
  %25 = getelementptr inbounds nuw %"class.sls::bv_plugin", ptr %15, i32 0, i32 4
  %26 = load ptr, ptr %5, align 8, !tbaa !114
  %27 = call noundef zeroext i1 @_ZN3sls7bv_eval15eval_is_correctEP3app(ptr noundef nonnull align 8 dereferenceable(865) %25, ptr noundef %26)
  br i1 %27, label %28, label %29

28:                                               ; preds = %24, %20, %2
  br label %103

29:                                               ; preds = %24
  %30 = load i32, ptr %6, align 4, !tbaa !113
  %31 = icmp eq i32 %30, 2
  br i1 %31, label %32, label %68

32:                                               ; preds = %29
  call void @llvm.lifetime.start.p0(i64 4, ptr %8) #3
  %33 = load ptr, ptr %5, align 8, !tbaa !114
  %34 = call noundef ptr @_ZNK3app7get_argEj(ptr noundef nonnull align 8 dereferenceable(32) %33, i32 noundef 0)
  %35 = call noundef i32 @_Z9get_depthPK4expr(ptr noundef %34)
  store i32 %35, ptr %8, align 4, !tbaa !113
  call void @llvm.lifetime.start.p0(i64 4, ptr %9) #3
  %36 = load ptr, ptr %5, align 8, !tbaa !114
  %37 = call noundef ptr @_ZNK3app7get_argEj(ptr noundef nonnull align 8 dereferenceable(32) %36, i32 noundef 1)
  %38 = call noundef i32 @_Z9get_depthPK4expr(ptr noundef %37)
  store i32 %38, ptr %9, align 4, !tbaa !113
  call void @llvm.lifetime.start.p0(i64 4, ptr %10) #3
  %39 = getelementptr inbounds nuw %"class.sls::plugin", ptr %15, i32 0, i32 1
  %40 = load ptr, ptr %39, align 8, !tbaa !111
  %41 = load i32, ptr %8, align 4, !tbaa !113
  %42 = load i32, ptr %9, align 4, !tbaa !113
  %43 = add i32 %41, %42
  %44 = add i32 %43, 2
  %45 = call noundef i32 @_ZN3sls7context4randEj(ptr noundef nonnull align 8 dereferenceable(321) %40, i32 noundef %44)
  store i32 %45, ptr %10, align 4, !tbaa !113
  %46 = load i32, ptr %10, align 4, !tbaa !113
  %47 = load i32, ptr %8, align 4, !tbaa !113
  %48 = icmp ule i32 %46, %47
  br i1 %48, label %49, label %54

49:                                               ; preds = %32
  %50 = getelementptr inbounds nuw %"class.sls::bv_plugin", ptr %15, i32 0, i32 4
  %51 = load ptr, ptr %5, align 8, !tbaa !114
  %52 = call noundef zeroext i1 @_ZN3sls7bv_eval11repair_downEP3appj(ptr noundef nonnull align 8 dereferenceable(865) %50, ptr noundef %51, i32 noundef 0)
  br i1 %52, label %53, label %54

53:                                               ; preds = %49
  store i32 2, ptr %11, align 4
  br label %65

54:                                               ; preds = %49, %32
  %55 = getelementptr inbounds nuw %"class.sls::bv_plugin", ptr %15, i32 0, i32 4
  %56 = load ptr, ptr %5, align 8, !tbaa !114
  %57 = call noundef zeroext i1 @_ZN3sls7bv_eval11repair_downEP3appj(ptr noundef nonnull align 8 dereferenceable(865) %55, ptr noundef %56, i32 noundef 1)
  br i1 %57, label %58, label %59

58:                                               ; preds = %54
  store i32 2, ptr %11, align 4
  br label %65

59:                                               ; preds = %54
  %60 = getelementptr inbounds nuw %"class.sls::bv_plugin", ptr %15, i32 0, i32 4
  %61 = load ptr, ptr %5, align 8, !tbaa !114
  %62 = call noundef zeroext i1 @_ZN3sls7bv_eval11repair_downEP3appj(ptr noundef nonnull align 8 dereferenceable(865) %60, ptr noundef %61, i32 noundef 0)
  br i1 %62, label %63, label %64

63:                                               ; preds = %59
  store i32 2, ptr %11, align 4
  br label %65

64:                                               ; preds = %59
  store i32 0, ptr %11, align 4
  br label %65

65:                                               ; preds = %63, %58, %53, %64
  call void @llvm.lifetime.end.p0(i64 4, ptr %10) #3
  call void @llvm.lifetime.end.p0(i64 4, ptr %9) #3
  call void @llvm.lifetime.end.p0(i64 4, ptr %8) #3
  %66 = load i32, ptr %11, align 4
  switch i32 %66, label %109 [
    i32 0, label %67
    i32 2, label %103
  ]

67:                                               ; preds = %65
  br label %102

68:                                               ; preds = %29
  call void @llvm.lifetime.start.p0(i64 4, ptr %12) #3
  %69 = getelementptr inbounds nuw %"class.sls::plugin", ptr %15, i32 0, i32 1
  %70 = load ptr, ptr %69, align 8, !tbaa !111
  %71 = load i32, ptr %6, align 4, !tbaa !113
  %72 = call noundef i32 @_ZN3sls7context4randEj(ptr noundef nonnull align 8 dereferenceable(321) %70, i32 noundef %71)
  store i32 %72, ptr %12, align 4, !tbaa !113
  call void @llvm.lifetime.start.p0(i64 4, ptr %13) #3
  store i32 0, ptr %13, align 4, !tbaa !113
  br label %73

73:                                               ; preds = %93, %68
  %74 = load i32, ptr %13, align 4, !tbaa !113
  %75 = load i32, ptr %6, align 4, !tbaa !113
  %76 = icmp ult i32 %74, %75
  br i1 %76, label %78, label %77

77:                                               ; preds = %73
  store i32 3, ptr %11, align 4
  br label %96

78:                                               ; preds = %73
  call void @llvm.lifetime.start.p0(i64 4, ptr %14) #3
  %79 = load i32, ptr %13, align 4, !tbaa !113
  %80 = load i32, ptr %12, align 4, !tbaa !113
  %81 = add i32 %79, %80
  %82 = load i32, ptr %6, align 4, !tbaa !113
  %83 = urem i32 %81, %82
  store i32 %83, ptr %14, align 4, !tbaa !113
  %84 = getelementptr inbounds nuw %"class.sls::bv_plugin", ptr %15, i32 0, i32 4
  %85 = load ptr, ptr %5, align 8, !tbaa !114
  %86 = load i32, ptr %14, align 4, !tbaa !113
  %87 = call noundef zeroext i1 @_ZN3sls7bv_eval11repair_downEP3appj(ptr noundef nonnull align 8 dereferenceable(865) %84, ptr noundef %85, i32 noundef %86)
  br i1 %87, label %88, label %89

88:                                               ; preds = %78
  store i32 2, ptr %11, align 4
  br label %90

89:                                               ; preds = %78
  store i32 0, ptr %11, align 4
  br label %90

90:                                               ; preds = %88, %89
  call void @llvm.lifetime.end.p0(i64 4, ptr %14) #3
  %91 = load i32, ptr %11, align 4
  switch i32 %91, label %96 [
    i32 0, label %92
  ]

92:                                               ; preds = %90
  br label %93

93:                                               ; preds = %92
  %94 = load i32, ptr %13, align 4, !tbaa !113
  %95 = add i32 %94, 1
  store i32 %95, ptr %13, align 4, !tbaa !113
  br label %73, !llvm.loop !164

96:                                               ; preds = %90, %77
  call void @llvm.lifetime.end.p0(i64 4, ptr %13) #3
  %97 = load i32, ptr %11, align 4
  switch i32 %97, label %99 [
    i32 3, label %98
  ]

98:                                               ; preds = %96
  store i32 0, ptr %11, align 4
  br label %99

99:                                               ; preds = %98, %96
  call void @llvm.lifetime.end.p0(i64 4, ptr %12) #3
  %100 = load i32, ptr %11, align 4
  switch i32 %100, label %109 [
    i32 0, label %101
    i32 2, label %103
  ]

101:                                              ; preds = %99
  br label %102

102:                                              ; preds = %101, %67
  store i8 0, ptr %7, align 1, !tbaa !158
  br label %103

103:                                              ; preds = %102, %99, %65, %28
  %104 = load ptr, ptr %5, align 8, !tbaa !114
  %105 = load i8, ptr %7, align 1, !tbaa !158, !range !156, !noundef !157
  %106 = trunc i8 %105 to i1
  call void @_ZN3sls9bv_plugin3logEP4exprbb(ptr noundef nonnull align 8 dereferenceable(1049) %15, ptr noundef %104, i1 noundef zeroext false, i1 noundef zeroext %106)
  %107 = load i8, ptr %7, align 1, !tbaa !158, !range !156, !noundef !157
  %108 = trunc i8 %107 to i1
  store i1 %108, ptr %3, align 1
  store i32 1, ptr %11, align 4
  br label %109

109:                                              ; preds = %103, %99, %65
  call void @llvm.lifetime.end.p0(i64 1, ptr %7) #3
  call void @llvm.lifetime.end.p0(i64 4, ptr %6) #3
  %110 = load i1, ptr %3, align 1
  ret i1 %110
}