; Function Attrs: mustprogress uwtable
define hidden noundef zeroext i1 @_ZN3sls9bv_plugin11repair_downEP3app(ptr noundef nonnull align 8 dereferenceable(1049) %0, ptr noundef %1) unnamed_addr #3 align 2 {
  %3 = getelementptr inbounds nuw i8, ptr %1, i64 24
  %4 = load i32, ptr %3, align 8, !tbaa !150
  %5 = icmp eq i32 %4, 0
  br i1 %5, label %.thread, label %6

6:                                                ; preds = %2
  %7 = getelementptr inbounds nuw i8, ptr %0, i64 120
  %8 = tail call noundef zeroext i1 @_ZNK3sls7bv_eval16is_uninterpretedEP3app(ptr noundef nonnull align 8 dereferenceable(865) %7, ptr noundef nonnull %1)
  br i1 %8, label %.thread, label %9

9:                                                ; preds = %6
  %10 = tail call noundef zeroext i1 @_ZN3sls7bv_eval15eval_is_correctEP3app(ptr noundef nonnull align 8 dereferenceable(865) %7, ptr noundef nonnull %1)
  br i1 %10, label %.thread, label %11

11:                                               ; preds = %9
  %12 = icmp eq i32 %4, 2
  br i1 %12, label %13, label %53

13:                                               ; preds = %11
  %14 = getelementptr inbounds nuw i8, ptr %1, i64 32
  %15 = load ptr, ptr %14, align 8, !tbaa !94
  %16 = getelementptr inbounds nuw i8, ptr %15, i64 4
  %17 = load i32, ptr %16, align 4
  %trunc.i = trunc i32 %17 to i16
  switch i16 %trunc.i, label %_Z9get_depthPK4expr.exit [
    i16 0, label %18
    i16 2, label %22
  ]

18:                                               ; preds = %13
  %19 = getelementptr inbounds nuw i8, ptr %15, i64 28
  %20 = load i16, ptr %19, align 4
  %21 = zext i16 %20 to i32
  br label %_Z9get_depthPK4expr.exit

22:                                               ; preds = %13
  %23 = getelementptr inbounds nuw i8, ptr %15, i64 40
  %24 = load i32, ptr %23, align 8, !tbaa !151
  br label %_Z9get_depthPK4expr.exit

_Z9get_depthPK4expr.exit:                         ; preds = %13, %18, %22
  %.0.i = phi i32 [ %21, %18 ], [ %24, %22 ], [ 1, %13 ]
  %25 = getelementptr inbounds nuw i8, ptr %1, i64 40
  %26 = load ptr, ptr %25, align 8, !tbaa !94
  %27 = getelementptr inbounds nuw i8, ptr %26, i64 4
  %28 = load i32, ptr %27, align 4
  %trunc.i39 = trunc i32 %28 to i16
  switch i16 %trunc.i39, label %_Z9get_depthPK4expr.exit41 [
    i16 0, label %29
    i16 2, label %33
  ]

29:                                               ; preds = %_Z9get_depthPK4expr.exit
  %30 = getelementptr inbounds nuw i8, ptr %26, i64 28
  %31 = load i16, ptr %30, align 4
  %32 = zext i16 %31 to i32
  br label %_Z9get_depthPK4expr.exit41

33:                                               ; preds = %_Z9get_depthPK4expr.exit
  %34 = getelementptr inbounds nuw i8, ptr %26, i64 40
  %35 = load i32, ptr %34, align 8, !tbaa !151
  br label %_Z9get_depthPK4expr.exit41

_Z9get_depthPK4expr.exit41:                       ; preds = %_Z9get_depthPK4expr.exit, %29, %33
  %.0.i40 = phi i32 [ %32, %29 ], [ %35, %33 ], [ 1, %_Z9get_depthPK4expr.exit ]
  %36 = getelementptr inbounds nuw i8, ptr %0, i64 8
  %37 = load ptr, ptr %36, align 8, !tbaa !109
  %38 = add i32 %.0.i, 2
  %39 = add i32 %38, %.0.i40
  %40 = getelementptr inbounds nuw i8, ptr %37, i64 152
  %41 = load i32, ptr %40, align 4, !tbaa !155
  %42 = mul i32 %41, 214013
  %43 = add i32 %42, 2531011
  store i32 %43, ptr %40, align 4, !tbaa !155
  %44 = lshr i32 %43, 16
  %45 = and i32 %44, 32767
  %46 = urem i32 %45, %39
  %.not = icmp ugt i32 %46, %.0.i
  br i1 %.not, label %49, label %47

47:                                               ; preds = %_Z9get_depthPK4expr.exit41
  %48 = tail call noundef zeroext i1 @_ZN3sls7bv_eval11repair_downEP3appj(ptr noundef nonnull align 8 dereferenceable(865) %7, ptr noundef nonnull %1, i32 noundef 0)
  br i1 %48, label %.thread, label %49

49:                                               ; preds = %47, %_Z9get_depthPK4expr.exit41
  %50 = tail call noundef zeroext i1 @_ZN3sls7bv_eval11repair_downEP3appj(ptr noundef nonnull align 8 dereferenceable(865) %7, ptr noundef nonnull %1, i32 noundef 1)
  br i1 %50, label %.thread, label %51

51:                                               ; preds = %49
  %52 = tail call noundef zeroext i1 @_ZN3sls7bv_eval11repair_downEP3appj(ptr noundef nonnull align 8 dereferenceable(865) %7, ptr noundef nonnull %1, i32 noundef 0)
  br i1 %52, label %.thread, label %.thread47

53:                                               ; preds = %11
  %54 = getelementptr inbounds nuw i8, ptr %0, i64 8
  %55 = load ptr, ptr %54, align 8, !tbaa !109
  %56 = getelementptr inbounds nuw i8, ptr %55, i64 152
  %57 = load i32, ptr %56, align 4, !tbaa !155
  %58 = mul i32 %57, 214013
  %59 = add i32 %58, 2531011
  store i32 %59, ptr %56, align 4, !tbaa !155
  %60 = lshr i32 %59, 16
  %61 = and i32 %60, 32767
  %62 = urem i32 %61, %4
  br label %65

63:                                               ; preds = %65
  %64 = add nuw i32 %.03249, 1
  %exitcond.not = icmp eq i32 %64, %4
  br i1 %exitcond.not, label %.thread47, label %65, !llvm.loop !156

65:                                               ; preds = %53, %63
  %.03249 = phi i32 [ 0, %53 ], [ %64, %63 ]
  %66 = add i32 %.03249, %62
  %67 = urem i32 %66, %4
  %68 = tail call noundef zeroext i1 @_ZN3sls7bv_eval11repair_downEP3appj(ptr noundef nonnull align 8 dereferenceable(865) %7, ptr noundef nonnull %1, i32 noundef %67)
  br i1 %68, label %.thread, label %63

.thread47:                                        ; preds = %63, %51
  br label %.thread

.thread:                                          ; preds = %65, %51, %49, %47, %2, %6, %9, %.thread47
  %.033 = phi i1 [ true, %2 ], [ true, %6 ], [ true, %9 ], [ false, %.thread47 ], [ true, %47 ], [ true, %49 ], [ true, %51 ], [ true, %65 ]
  tail call void @_ZN3sls9bv_plugin3logEP4exprbb(ptr noundef nonnull align 8 dereferenceable(1049) %0, ptr noundef nonnull %1, i1 noundef zeroext false, i1 noundef zeroext %.033)
  ret i1 %.033
}